Certificate:
    Data:
        Version: 3 (0x2)
        Serial Number: 2 (0x2)
    Signature Algorithm: sha256WithRSAEncryption
        Issuer: C=CA, ST=Ontario, L=Toronto, O=Arcturus Networks Inc., OU=Mbarx Root Certificate Authority, CN=Mbarx Root CA
        Validity
            Not Before: Mar 17 18:53:32 2016 GMT
            Not After : Dec 31 23:59:59 2046 GMT
        Subject: C=CA, ST=Ontario, L=Toronto, O=Arcturus Networks Inc., OU=Mbarx System Manager Certificate Authority, CN=Mbarx SM CA
        Subject Public Key Info:
            Public Key Algorithm: rsaEncryption
                Public-Key: (2048 bit)
                Modulus:
                    00:dd:ec:3c:6d:35:0b:c7:f0:58:08:3e:9d:f9:b7:
                    be:99:31:79:ff:d7:17:fb:45:66:98:8b:94:cc:5c:
                    6a:91:f1:87:fa:dd:53:01:53:1d:69:59:0c:32:4d:
                    b6:ca:7d:5d:3c:2e:cc:62:b2:ed:45:c7:af:ec:29:
                    0d:1e:e1:77:c8:32:a0:a2:38:82:99:bb:bb:a5:7c:
                    8e:60:92:c3:00:99:b3:ba:e4:49:fe:67:f7:ca:03:
                    d8:85:95:c1:ec:ec:81:51:88:62:2c:48:ba:63:62:
                    fe:93:ac:28:15:b6:e4:d3:07:0e:08:b6:af:df:21:
                    5b:ba:1d:a1:66:37:53:bc:cf:49:d6:fe:04:f5:3d:
                    47:bd:a2:2e:c6:35:18:e6:bd:90:9d:b2:d5:96:89:
                    f5:3d:96:5b:88:9f:f0:bc:77:3f:83:8e:c0:0d:9b:
                    ea:55:b7:8f:24:5b:ae:a3:31:4a:8f:f9:1e:36:7c:
                    f4:d4:07:57:fc:3d:58:85:df:c4:81:ec:57:f9:38:
                    82:2a:c3:39:05:00:de:4a:a5:5e:5e:27:44:d9:ef:
                    2d:42:09:1f:db:b1:83:63:ac:0e:c0:0f:72:90:fa:
                    e9:ee:f9:c1:8a:5a:10:95:94:b5:42:87:6d:c0:6c:
                    31:3f:04:e9:e0:f7:31:2a:82:c1:a2:6d:65:d9:be:
                    d8:9b
                Exponent: 65537 (0x10001)
        X509v3 extensions:
            X509v3 Key Usage: critical
                Certificate Sign, CRL Sign
            X509v3 Basic Constraints: critical
                CA:TRUE, pathlen:0
            X509v3 Subject Key Identifier: 
                F6:9A:BB:53:82:F5:44:F4:2C:28:2D:F4:40:85:1A:6A:20:71:AE:56
            X509v3 Authority Key Identifier: 
                keyid:63:2E:49:91:F6:53:8D:09:81:7B:9F:F6:A9:9C:BE:4D:7C:27:63:DD

            Authority Information Access: 
                CA Issuers - URI:https://arcturusnetworks.com/CertAuth/Mbarx-root-ca.cer

            X509v3 CRL Distribution Points: 

                Full Name:
                  URI:https://arcturusnetworks.com/CertAuth/Mbarx-root-ca.crl

    Signature Algorithm: sha256WithRSAEncryption
         81:df:64:9f:3c:2b:e8:6f:e6:70:75:08:9c:64:b5:64:8a:ea:
         ce:34:07:29:df:4f:69:47:aa:ab:0d:f8:75:55:45:62:28:8a:
         f5:78:6b:81:6f:1a:b5:12:15:fe:a2:36:3e:16:0b:52:fa:9b:
         c6:9e:4f:b9:53:6f:ba:bc:62:9c:d6:36:15:f2:2d:01:5a:51:
         ee:34:7e:2b:09:e0:51:fe:0a:fb:77:8f:63:88:e0:41:2b:d2:
         8a:f9:2d:47:ad:17:e9:51:b4:05:a3:08:ad:6e:36:73:1d:bf:
         73:eb:b2:25:dc:99:d8:5f:f8:30:38:5f:cd:5a:a4:72:c2:bb:
         3e:19:3a:9c:5e:63:2c:66:1e:41:3e:35:79:27:3a:57:71:89:
         d1:2e:d1:ed:13:a8:a9:93:56:3b:9a:d5:5e:75:b6:26:be:f4:
         83:57:77:7d:8f:d9:f9:32:4a:fa:80:96:78:db:59:3a:1e:28:
         3f:32:5d:ba:cf:20:ff:5b:41:3e:2f:c5:f6:d6:a3:79:13:50:
         a1:1c:39:c1:c9:11:da:9a:d8:1f:46:5a:c5:86:3c:fb:37:3a:
         84:cc:1b:45:00:ea:68:b6:f9:f4:d7:1c:a1:4c:27:9e:85:f3:
         b0:c8:84:f0:ea:9c:fd:1a:2a:19:dd:df:1d:47:15:52:42:88:
         ec:9e:05:6b
-----BEGIN CERTIFICATE-----
MIIEujCCA6KgAwIBAgIBAjANBgkqhkiG9w0BAQsFADCBlTELMAkGA1UEBhMCQ0Ex
EDAOBgNVBAgMB09udGFyaW8xEDAOBgNVBAcMB1Rvcm9udG8xHzAdBgNVBAoMFkFy
Y3R1cnVzIE5ldHdvcmtzIEluYy4xKTAnBgNVBAsMIE1iYXJ4IFJvb3QgQ2VydGlm
aWNhdGUgQXV0aG9yaXR5MRYwFAYDVQQDDA1NYmFyeCBSb290IENBMCAXDTE2MDMx
NzE4NTMzMloYDzIwNDYxMjMxMjM1OTU5WjCBnTELMAkGA1UEBhMCQ0ExEDAOBgNV
BAgMB09udGFyaW8xEDAOBgNVBAcMB1Rvcm9udG8xHzAdBgNVBAoMFkFyY3R1cnVz
IE5ldHdvcmtzIEluYy4xMzAxBgNVBAsMKk1iYXJ4IFN5c3RlbSBNYW5hZ2VyIENl
cnRpZmljYXRlIEF1dGhvcml0eTEUMBIGA1UEAwwLTWJhcnggU00gQ0EwggEiMA0G
CSqGSIb3DQEBAQUAA4IBDwAwggEKAoIBAQDd7DxtNQvH8FgIPp35t76ZMXn/1xf7
RWaYi5TMXGqR8Yf63VMBUx1pWQwyTbbKfV08Lsxisu1Fx6/sKQ0e4XfIMqCiOIKZ
u7ulfI5gksMAmbO65En+Z/fKA9iFlcHs7IFRiGIsSLpjYv6TrCgVtuTTBw4Itq/f
IVu6HaFmN1O8z0nW/gT1PUe9oi7GNRjmvZCdstWWifU9lluIn/C8dz+DjsANm+pV
t48kW66jMUqP+R42fPTUB1f8PViF38SB7Ff5OIIqwzkFAN5KpV5eJ0TZ7y1CCR/b
sYNjrA7AD3KQ+unu+cGKWhCVlLVCh23AbDE/BOng9zEqgsGibWXZvtibAgMBAAGj
ggEHMIIBAzAOBgNVHQ8BAf8EBAMCAQYwEgYDVR0TAQH/BAgwBgEB/wIBADAdBgNV
HQ4EFgQU9pq7U4L1RPQsKC30QIUaaiBxrlYwHwYDVR0jBBgwFoAUYy5JkfZTjQmB
e5/2qZy+TXwnY90wUwYIKwYBBQUHAQEERzBFMEMGCCsGAQUFBzAChjdodHRwczov
L2FyY3R1cnVzbmV0d29ya3MuY29tL0NlcnRBdXRoL01iYXJ4LXJvb3QtY2EuY2Vy
MEgGA1UdHwRBMD8wPaA7oDmGN2h0dHBzOi8vYXJjdHVydXNuZXR3b3Jrcy5jb20v
Q2VydEF1dGgvTWJhcngtcm9vdC1jYS5jcmwwDQYJKoZIhvcNAQELBQADggEBAIHf
ZJ88K+hv5nB1CJxktWSK6s40BynfT2lHqqsN+HVVRWIoivV4a4FvGrUSFf6iNj4W
C1L6m8aeT7lTb7q8YpzWNhXyLQFaUe40fisJ4FH+Cvt3j2OI4EEr0or5LUetF+lR
tAWjCK1uNnMdv3PrsiXcmdhf+DA4X81apHLCuz4ZOpxeYyxmHkE+NXknOldxidEu
0e0TqKmTVjua1V51tia+9INXd32P2fkySvqAlnjbWToeKD8yXbrPIP9bQT4vxfbW
o3kTUKEcOcHJEdqa2B9GWsWGPPs3OoTMG0UA6mi2+fTXHKFMJ56F87DIhPDqnP0a
Khnd3x1HFVJCiOyeBWs=
-----END CERTIFICATE-----
Certificate:
    Data:
        Version: 3 (0x2)
        Serial Number: 1 (0x1)
    Signature Algorithm: sha256WithRSAEncryption
        Issuer: C=CA, ST=Ontario, L=Toronto, O=Arcturus Networks Inc., OU=Mbarx Root Certificate Authority, CN=Mbarx Root CA
        Validity
            Not Before: Mar 17 18:53:12 2016 GMT
            Not After : Dec 31 23:59:59 2046 GMT
        Subject: C=CA, ST=Ontario, L=Toronto, O=Arcturus Networks Inc., OU=Mbarx Root Certificate Authority, CN=Mbarx Root CA
        Subject Public Key Info:
            Public Key Algorithm: rsaEncryption
                Public-Key: (2048 bit)
                Modulus:
                    00:da:8e:99:72:5d:90:25:c4:48:21:88:f5:06:4a:
                    c1:5b:af:2d:16:82:ce:9c:da:52:41:f2:1c:40:f0:
                    0a:5a:80:8d:82:c1:97:fa:a9:9f:27:c6:1c:39:8b:
                    6b:8b:f5:a2:98:b8:8a:67:b3:e6:a1:c7:ef:2c:64:
                    53:9b:7f:c8:ae:63:1e:bb:53:9d:e0:ea:75:82:e2:
                    82:af:f5:00:a3:65:08:38:3c:3a:f5:c7:8f:49:df:
                    17:96:14:ad:4a:19:41:86:67:3d:e8:de:e2:d0:e9:
                    51:db:9c:e3:46:b4:3b:69:73:82:b1:5f:2f:d3:87:
                    53:cc:c2:6f:be:97:83:a3:df:05:81:84:fb:1c:29:
                    bb:39:67:44:c6:1d:49:05:f2:db:0a:17:59:30:be:
                    3e:be:55:1f:95:f3:d4:06:fc:73:ff:48:ca:f8:eb:
                    d1:7b:8f:b8:19:f2:b0:a2:ac:89:6e:cf:d3:0e:0b:
                    e3:24:ee:d3:78:26:7f:81:65:77:6c:6e:b1:39:f5:
                    61:c8:a1:35:d7:63:06:2a:7e:40:cb:eb:49:be:c0:
                    ca:82:0b:18:0f:f4:69:e4:3e:ad:d4:65:de:86:8e:
                    19:09:9a:f7:81:f1:cc:6a:6a:d4:26:a8:8a:1e:00:
                    b9:11:db:a8:d6:55:f3:69:7b:35:79:7f:49:c0:2a:
                    1a:8f
                Exponent: 65537 (0x10001)
        X509v3 extensions:
            X509v3 Key Usage: critical
                Certificate Sign, CRL Sign
            X509v3 Basic Constraints: critical
                CA:TRUE
            X509v3 Subject Key Identifier: 
                63:2E:49:91:F6:53:8D:09:81:7B:9F:F6:A9:9C:BE:4D:7C:27:63:DD
            X509v3 Authority Key Identifier: 
                keyid:63:2E:49:91:F6:53:8D:09:81:7B:9F:F6:A9:9C:BE:4D:7C:27:63:DD

    Signature Algorithm: sha256WithRSAEncryption
         3b:3d:57:43:80:84:14:ea:b2:a1:a0:b6:6f:1a:90:41:7f:5d:
         65:55:b4:c8:8e:8d:ba:ca:c7:8d:55:91:8c:29:4f:b3:84:b2:
         64:2a:bb:98:a0:ff:05:bd:97:b9:f7:20:ad:94:6e:cc:bb:28:
         1c:7c:3f:45:9f:53:64:62:c6:8e:7a:a6:da:5d:c9:55:68:58:
         f8:e8:b8:3e:18:61:c1:ea:c1:5d:48:32:63:b7:2a:81:7b:7c:
         74:9b:d7:70:8e:29:9c:8a:4e:16:ba:ac:e7:bc:84:92:b9:ba:
         20:9f:89:ff:1a:88:f9:dd:ec:46:ba:a3:d1:56:cb:e1:6a:80:
         f0:e3:17:38:7d:e2:cf:7d:cb:85:a0:86:5c:91:55:d4:27:5e:
         0f:f9:2b:b5:ca:f1:e1:5b:16:41:ce:94:ea:a6:e5:fa:dc:f9:
         14:f9:d3:7d:d9:9d:08:6e:b4:66:1f:2d:7a:47:b4:75:26:7d:
         4f:68:94:dc:f4:14:88:53:c9:74:15:66:4d:f4:56:87:a5:a9:
         81:d8:06:e6:c0:3b:e4:cd:13:15:15:e0:a3:89:8c:b8:04:e3:
         49:d5:ef:e4:dc:8a:57:fc:a4:01:12:cc:7c:66:a8:87:ed:88:
         af:e6:b8:1e:dc:91:16:06:bf:6f:c8:fb:dc:4b:fa:c4:aa:e6:
         4b:0f:5b:7a
-----BEGIN CERTIFICATE-----
MIIEDDCCAvSgAwIBAgIBATANBgkqhkiG9w0BAQsFADCBlTELMAkGA1UEBhMCQ0Ex
EDAOBgNVBAgMB09udGFyaW8xEDAOBgNVBAcMB1Rvcm9udG8xHzAdBgNVBAoMFkFy
Y3R1cnVzIE5ldHdvcmtzIEluYy4xKTAnBgNVBAsMIE1iYXJ4IFJvb3QgQ2VydGlm
aWNhdGUgQXV0aG9yaXR5MRYwFAYDVQQDDA1NYmFyeCBSb290IENBMCAXDTE2MDMx
NzE4NTMxMloYDzIwNDYxMjMxMjM1OTU5WjCBlTELMAkGA1UEBhMCQ0ExEDAOBgNV
BAgMB09udGFyaW8xEDAOBgNVBAcMB1Rvcm9udG8xHzAdBgNVBAoMFkFyY3R1cnVz
IE5ldHdvcmtzIEluYy4xKTAnBgNVBAsMIE1iYXJ4IFJvb3QgQ2VydGlmaWNhdGUg
QXV0aG9yaXR5MRYwFAYDVQQDDA1NYmFyeCBSb290IENBMIIBIjANBgkqhkiG9w0B
AQEFAAOCAQ8AMIIBCgKCAQEA2o6Zcl2QJcRIIYj1BkrBW68tFoLOnNpSQfIcQPAK
WoCNgsGX+qmfJ8YcOYtri/WimLiKZ7PmocfvLGRTm3/IrmMeu1Od4Op1guKCr/UA
o2UIODw69cePSd8XlhStShlBhmc96N7i0OlR25zjRrQ7aXOCsV8v04dTzMJvvpeD
o98FgYT7HCm7OWdExh1JBfLbChdZML4+vlUflfPUBvxz/0jK+OvRe4+4GfKwoqyJ
bs/TDgvjJO7TeCZ/gWV3bG6xOfVhyKE112MGKn5Ay+tJvsDKggsYD/Rp5D6t1GXe
ho4ZCZr3gfHMamrUJqiKHgC5Eduo1lXzaXs1eX9JwCoajwIDAQABo2MwYTAOBgNV
HQ8BAf8EBAMCAQYwDwYDVR0TAQH/BAUwAwEB/zAdBgNVHQ4EFgQUYy5JkfZTjQmB
e5/2qZy+TXwnY90wHwYDVR0jBBgwFoAUYy5JkfZTjQmBe5/2qZy+TXwnY90wDQYJ
KoZIhvcNAQELBQADggEBADs9V0OAhBTqsqGgtm8akEF/XWVVtMiOjbrKx41VkYwp
T7OEsmQqu5ig/wW9l7n3IK2Ubsy7KBx8P0WfU2Rixo56ptpdyVVoWPjouD4YYcHq
wV1IMmO3KoF7fHSb13COKZyKTha6rOe8hJK5uiCfif8aiPnd7Ea6o9FWy+FqgPDj
Fzh94s99y4WghlyRVdQnXg/5K7XK8eFbFkHOlOqm5frc+RT5033ZnQhutGYfLXpH
tHUmfU9olNz0FIhTyXQVZk30VoelqYHYBubAO+TNExUV4KOJjLgE40nV7+Tcilf8
pAESzHxmqIftiK/muB7ckRYGv2/I+9xL+sSq5ksPW3o=
-----END CERTIFICATE-----
