Certificate:
    Data:
        Version: 3 (0x2)
        Serial Number: 1 (0x1)
    Signature Algorithm: sha256WithRSAEncryption
        Issuer: C=CA, ST=Ontario, L=Toronto, O=Arcturus Networks Inc., OU=Mbarx System Manager Certificate Authority, CN=Mbarx SM CA
        Validity
            Not Before: Mar 17 18:53:49 2016 GMT
            Not After : Mar 17 18:53:49 2026 GMT
        Subject: C=CA, ST=Ontario, L=Toronto, O=Arcturus Networks Inc., OU=System Manager Mbarx, CN=mbarx.sm.local, CN=mbarx
        Subject Public Key Info:
            Public Key Algorithm: rsaEncryption
                Public-Key: (2048 bit)
                Modulus:
                    00:b3:2b:72:c7:79:d4:1c:43:91:e2:9c:d1:bf:49:
                    c3:b6:13:3a:15:24:51:e7:fc:32:79:5f:ec:d7:58:
                    09:e0:8e:f6:0b:1d:91:1c:8f:a7:33:3d:1c:fe:1f:
                    4b:d4:2c:03:e0:59:86:e0:14:3c:49:3b:e0:43:2f:
                    8a:8d:53:97:0c:ef:db:66:ab:85:f4:2d:b5:28:33:
                    ce:79:af:66:c4:29:a5:a4:a8:da:40:c8:67:7a:c7:
                    71:d3:e6:2a:c5:80:b2:8c:98:f1:8f:e9:a1:9c:ef:
                    f3:dd:c3:71:18:04:50:ff:bc:c6:7b:b2:33:cb:6e:
                    18:fe:e1:13:b1:67:2b:88:6c:c2:2a:b0:94:39:1c:
                    b3:c6:92:70:7d:dc:f5:01:37:46:f0:64:8e:8c:ed:
                    23:2b:b6:33:e7:85:db:43:db:91:7a:9f:f1:97:d0:
                    4e:1c:54:ad:bb:e8:03:5d:9b:68:1c:40:b0:60:ee:
                    8c:0c:4f:20:2c:7f:fe:24:3a:74:66:43:2e:c6:9e:
                    f0:fb:50:71:c2:09:d2:39:6f:4f:aa:1b:bd:0f:9a:
                    d9:c0:83:db:a0:8f:9b:43:f6:92:d1:9e:ac:03:d9:
                    04:b9:dc:13:48:6e:7e:0f:a4:70:0b:34:f8:ed:dc:
                    a3:52:b5:18:89:15:fc:ae:9d:ce:09:eb:8a:31:04:
                    19:49
                Exponent: 65537 (0x10001)
        X509v3 extensions:
            X509v3 Key Usage: critical
                Digital Signature, Key Encipherment
            X509v3 Basic Constraints: 
                CA:FALSE
            X509v3 Extended Key Usage: 
                TLS Web Server Authentication, TLS Web Client Authentication
            X509v3 Subject Key Identifier: 
                04:37:49:E2:52:49:A1:51:1A:C9:0C:6B:17:E7:83:20:F7:50:80:4A
            X509v3 Authority Key Identifier: 
                keyid:F6:9A:BB:53:82:F5:44:F4:2C:28:2D:F4:40:85:1A:6A:20:71:AE:56

            Authority Information Access: 
                CA Issuers - URI:https://arcturusnetworks.com/CertAuth/Mbarx-SM-ca.cer

            X509v3 CRL Distribution Points: 

                Full Name:
                  URI:https://arcturusnetworks.com/CertAuth/Mbarx-SM-ca.crl

    Signature Algorithm: sha256WithRSAEncryption
         cc:a8:58:aa:77:de:30:8d:ff:4a:e1:b1:1e:c2:fc:85:af:20:
         8d:d1:30:21:22:f3:59:00:1f:ec:ab:d5:b4:ea:2f:e2:b0:cc:
         93:66:32:34:c3:f0:31:ab:6c:ca:58:b2:16:67:87:c0:f2:79:
         37:3c:54:c8:27:7b:6b:c8:05:43:98:6e:79:2d:cb:76:80:db:
         ca:1b:76:d0:f5:61:b4:71:1a:d6:79:e1:f5:27:c6:3b:b9:58:
         03:82:50:d4:c1:ff:12:9d:14:84:39:07:de:31:e0:b3:86:2e:
         cf:fc:26:df:34:72:27:68:eb:bc:6d:bf:d9:85:e3:d3:a2:41:
         27:cb:cc:7a:81:1d:b9:7c:36:c2:c4:00:d1:af:c5:66:71:58:
         d7:33:45:cf:fc:29:42:44:95:3d:37:24:b3:7d:54:2a:c3:f8:
         be:0b:4d:30:0c:42:eb:aa:0c:c1:5d:19:6f:4b:76:f1:cf:9c:
         3a:56:68:d3:d5:87:fb:e9:fc:f9:8e:f5:12:be:5c:ac:6f:5d:
         75:7b:0a:69:37:18:7d:ad:14:72:b6:11:2e:16:69:5b:a4:12:
         cd:c7:f2:70:9a:c1:88:a9:5b:af:d2:69:72:27:02:35:72:a1:
         36:7b:4f:5d:83:eb:15:9d:83:a5:45:d2:f5:af:66:82:49:fd:
         87:f9:31:09
-----BEGIN CERTIFICATE-----
MIIEzzCCA7egAwIBAgIBATANBgkqhkiG9w0BAQsFADCBnTELMAkGA1UEBhMCQ0Ex
EDAOBgNVBAgMB09udGFyaW8xEDAOBgNVBAcMB1Rvcm9udG8xHzAdBgNVBAoMFkFy
Y3R1cnVzIE5ldHdvcmtzIEluYy4xMzAxBgNVBAsMKk1iYXJ4IFN5c3RlbSBNYW5h
Z2VyIENlcnRpZmljYXRlIEF1dGhvcml0eTEUMBIGA1UEAwwLTWJhcnggU00gQ0Ew
HhcNMTYwMzE3MTg1MzQ5WhcNMjYwMzE3MTg1MzQ5WjCBmjELMAkGA1UEBhMCQ0Ex
EDAOBgNVBAgMB09udGFyaW8xEDAOBgNVBAcMB1Rvcm9udG8xHzAdBgNVBAoMFkFy
Y3R1cnVzIE5ldHdvcmtzIEluYy4xHTAbBgNVBAsMFFN5c3RlbSBNYW5hZ2VyIE1i
YXJ4MRcwFQYDVQQDDA5tYmFyeC5zbS5sb2NhbDEOMAwGA1UEAwwFbWJhcngwggEi
MA0GCSqGSIb3DQEBAQUAA4IBDwAwggEKAoIBAQCzK3LHedQcQ5HinNG/ScO2EzoV
JFHn/DJ5X+zXWAngjvYLHZEcj6czPRz+H0vULAPgWYbgFDxJO+BDL4qNU5cM79tm
q4X0LbUoM855r2bEKaWkqNpAyGd6x3HT5irFgLKMmPGP6aGc7/Pdw3EYBFD/vMZ7
sjPLbhj+4ROxZyuIbMIqsJQ5HLPGknB93PUBN0bwZI6M7SMrtjPnhdtD25F6n/GX
0E4cVK276ANdm2gcQLBg7owMTyAsf/4kOnRmQy7GnvD7UHHCCdI5b0+qG70PmtnA
g9ugj5tD9pLRnqwD2QS53BNIbn4PpHALNPjt3KNStRiJFfyunc4J64oxBBlJAgMB
AAGjggEZMIIBFTAOBgNVHQ8BAf8EBAMCBaAwCQYDVR0TBAIwADAdBgNVHSUEFjAU
BggrBgEFBQcDAQYIKwYBBQUHAwIwHQYDVR0OBBYEFAQ3SeJSSaFRGskMaxfngyD3
UIBKMB8GA1UdIwQYMBaAFPaau1OC9UT0LCgt9ECFGmogca5WMFEGCCsGAQUFBwEB
BEUwQzBBBggrBgEFBQcwAoY1aHR0cHM6Ly9hcmN0dXJ1c25ldHdvcmtzLmNvbS9D
ZXJ0QXV0aC9NYmFyeC1TTS1jYS5jZXIwRgYDVR0fBD8wPTA7oDmgN4Y1aHR0cHM6
Ly9hcmN0dXJ1c25ldHdvcmtzLmNvbS9DZXJ0QXV0aC9NYmFyeC1TTS1jYS5jcmww
DQYJKoZIhvcNAQELBQADggEBAMyoWKp33jCN/0rhsR7C/IWvII3RMCEi81kAH+yr
1bTqL+KwzJNmMjTD8DGrbMpYshZnh8DyeTc8VMgne2vIBUOYbnkty3aA28obdtD1
YbRxGtZ54fUnxju5WAOCUNTB/xKdFIQ5B94x4LOGLs/8Jt80cido67xtv9mF49Oi
QSfLzHqBHbl8NsLEANGvxWZxWNczRc/8KUJElT03JLN9VCrD+L4LTTAMQuuqDMFd
GW9LdvHPnDpWaNPVh/vp/PmO9RK+XKxvXXV7Cmk3GH2tFHK2ES4WaVukEs3H8nCa
wYipW6/SaXInAjVyoTZ7T12D6xWdg6VF0vWvZoJJ/Yf5MQk=
-----END CERTIFICATE-----
